target datalayout = "e-m:e-p270:32:32-p271:32:32-p272:64:64-i64:64-i128:128-f80:128-n8:16:32:64-S128"
target triple = "x86_64-pc-linux-gnu"

%struct._cmsStage_struct = type { ptr, i32, i32, i32, i32, ptr, ptr, ptr, ptr, ptr }

@_cmsStageAllocLabV2ToV4.V2ToV4 = internal constant [9 x double] [double 0x3FF0100000000000, double 0.000000e+00, double 0.000000e+00, double 0.000000e+00, double 0x3FF0100000000000, double 0.000000e+00, double 0.000000e+00, double 0.000000e+00, double 0x3FF0100000000000], align 16

; Function Attrs: nounwind uwtable
define hidden ptr @_cmsStageAllocLabV2ToV4(ptr noundef %0) #0 {
  %2 = alloca ptr, align 8
  %3 = alloca ptr, align 8
  %4 = alloca ptr, align 8
  store ptr %0, ptr %3, align 8
  %5 = load ptr, ptr %3, align 8
  %6 = call ptr @cmsStageAllocMatrix(ptr noundef %5, i32 noundef 3, i32 noundef 3, ptr noundef @_cmsStageAllocLabV2ToV4.V2ToV4, ptr noundef null)
  store ptr %6, ptr %4, align 8
  %7 = load ptr, ptr %4, align 8
  %8 = icmp eq ptr %7, null
  br i1 %8, label %9, label %11

9:                                                ; preds = %1
  %10 = load ptr, ptr %4, align 8
  store ptr %10, ptr %2, align 8
  br label %15

11:                                               ; preds = %1
  %12 = load ptr, ptr %4, align 8
  %13 = getelementptr inbounds %struct._cmsStage_struct, ptr %12, i32 0, i32 2
  store i32 840971296, ptr %13, align 4
  %14 = load ptr, ptr %4, align 8
  store ptr %14, ptr %2, align 8
  br label %15

15:                                               ; preds = %11, %9
  %16 = load ptr, ptr %2, align 8
  ret ptr %16
}